(dp0
I0
S'./links_cp/unofficialgoogledatascience/0.txt'
p1
sI1
S'./links_cp/unofficialgoogledatascience/1.txt'
p2
sI2
S'./links_cp/unofficialgoogledatascience/2.txt'
p3
sI3
S'./links_cp/unofficialgoogledatascience/3.txt'
p4
sI4
S'./links_cp/unofficialgoogledatascience/4.txt'
p5
sI5
S'./links_cp/unofficialgoogledatascience/5.txt'
p6
sI6
S'./links_cp/unofficialgoogledatascience/6.txt'
p7
sI7
S'./links_cp/unofficialgoogledatascience/7.txt'
p8
sI8
S'./links_cp/unofficialgoogledatascience/8.txt'
p9
sI9
S'./links_cp/unofficialgoogledatascience/9.txt'
p10
sI10
S'./links_cp/unofficialgoogledatascience/10.txt'
p11
sI11
S'./links_cp/unofficialgoogledatascience/11.txt'
p12
sI12
S'./links_cp/unofficialgoogledatascience/12.txt'
p13
sI13
S'./links_cp/unofficialgoogledatascience/13.txt'
p14
sI14
S'./links_cp/unofficialgoogledatascience/14.txt'
p15
sI15
S'./links_cp/unofficialgoogledatascience/15.txt'
p16
sI16
S'./links_cp/unofficialgoogledatascience/16.txt'
p17
sI17
S'./links_cp/unofficialgoogledatascience/17.txt'
p18
sI18
S'./links_cp/unofficialgoogledatascience/18.txt'
p19
sI19
S'./links_cp/unofficialgoogledatascience/19.txt'
p20
sI20
S'./links_cp/unofficialgoogledatascience/20.txt'
p21
sI21
S'./links_cp/unofficialgoogledatascience/21.txt'
p22
sI22
S'./links_cp/unofficialgoogledatascience/22.txt'
p23
sI23
S'./links_cp/unofficialgoogledatascience/23.txt'
p24
sI24
S'./links_cp/unofficialgoogledatascience/24.txt'
p25
sI25
S'./links_cp/unofficialgoogledatascience/25.txt'
p26
sI26
S'./links_cp/unofficialgoogledatascience/26.txt'
p27
sI27
S'./links_cp/unofficialgoogledatascience/27.txt'
p28
sI28
S'./links_cp/unofficialgoogledatascience/28.txt'
p29
sI29
S'./links_cp/unofficialgoogledatascience/29.txt'
p30
sI30
S'./links_cp/unofficialgoogledatascience/30.txt'
p31
sI31
S'./links_cp/unofficialgoogledatascience/31.txt'
p32
sI32
S'./links_cp/unofficialgoogledatascience/32.txt'
p33
sI33
S'./links_cp/unofficialgoogledatascience/33.txt'
p34
sI34
S'./links_cp/unofficialgoogledatascience/34.txt'
p35
sI35
S'./links_cp/unofficialgoogledatascience/35.txt'
p36
sI36
S'./links_cp/unofficialgoogledatascience/36.txt'
p37
sI37
S'./links_cp/unofficialgoogledatascience/37.txt'
p38
sI38
S'./links_cp/unofficialgoogledatascience/38.txt'
p39
sI39
S'./links_cp/unofficialgoogledatascience/39.txt'
p40
sI40
S'./links_cp/unofficialgoogledatascience/40.txt'
p41
sI41
S'./links_cp/unofficialgoogledatascience/41.txt'
p42
sI42
S'./links_cp/unofficialgoogledatascience/42.txt'
p43
sI43
S'./links_cp/unofficialgoogledatascience/43.txt'
p44
sI44
S'./links_cp/unofficialgoogledatascience/44.txt'
p45
sI45
S'./links_cp/unofficialgoogledatascience/45.txt'
p46
sI46
S'./links_cp/unofficialgoogledatascience/46.txt'
p47
sI47
S'./links_cp/unofficialgoogledatascience/47.txt'
p48
sI48
S'./links_cp/unofficialgoogledatascience/48.txt'
p49
sI49
S'./links_cp/unofficialgoogledatascience/49.txt'
p50
sI50
S'./links_cp/unofficialgoogledatascience/50.txt'
p51
sI51
S'./links_cp/unofficialgoogledatascience/51.txt'
p52
sI52
S'./links_cp/adeshpande3githubio/0.txt'
p53
sI53
S'./links_cp/adeshpande3githubio/2.txt'
p54
sI54
S'./links_cp/nlpersblogspot/0.txt'
p55
sI55
S'./links_cp/nlpersblogspot/1.txt'
p56
sI56
S'./links_cp/nlpersblogspot/2.txt'
p57
sI57
S'./links_cp/nlpersblogspot/3.txt'
p58
sI58
S'./links_cp/nlpersblogspot/4.txt'
p59
sI59
S'./links_cp/nlpersblogspot/5.txt'
p60
sI60
S'./links_cp/nlpersblogspot/6.txt'
p61
sI61
S'./links_cp/nlpersblogspot/7.txt'
p62
sI62
S'./links_cp/nlpersblogspot/8.txt'
p63
sI63
S'./links_cp/nlpersblogspot/9.txt'
p64
sI64
S'./links_cp/nlpersblogspot/10.txt'
p65
sI65
S'./links_cp/nlpersblogspot/11.txt'
p66
sI66
S'./links_cp/nlpersblogspot/12.txt'
p67
sI67
S'./links_cp/nlpersblogspot/13.txt'
p68
sI68
S'./links_cp/nlpersblogspot/14.txt'
p69
sI69
S'./links_cp/nlpersblogspot/15.txt'
p70
sI70
S'./links_cp/nlpersblogspot/16.txt'
p71
sI71
S'./links_cp/nlpersblogspot/17.txt'
p72
sI72
S'./links_cp/nlpersblogspot/18.txt'
p73
sI73
S'./links_cp/nlpersblogspot/19.txt'
p74
sI74
S'./links_cp/nlpersblogspot/20.txt'
p75
sI75
S'./links_cp/nlpersblogspot/21.txt'
p76
sI76
S'./links_cp/nlpersblogspot/22.txt'
p77
sI77
S'./links_cp/nlpersblogspot/23.txt'
p78
sI78
S'./links_cp/nlpersblogspot/24.txt'
p79
sI79
S'./links_cp/nlpersblogspot/25.txt'
p80
sI80
S'./links_cp/nlpersblogspot/26.txt'
p81
sI81
S'./links_cp/nlpersblogspot/27.txt'
p82
sI82
S'./links_cp/nlpersblogspot/28.txt'
p83
sI83
S'./links_cp/nlpersblogspot/29.txt'
p84
sI84
S'./links_cp/nlpersblogspot/30.txt'
p85
sI85
S'./links_cp/nlpersblogspot/31.txt'
p86
sI86
S'./links_cp/nlpersblogspot/32.txt'
p87
sI87
S'./links_cp/nlpersblogspot/33.txt'
p88
sI88
S'./links_cp/nlpersblogspot/34.txt'
p89
sI89
S'./links_cp/nlpersblogspot/35.txt'
p90
sI90
S'./links_cp/nlpersblogspot/36.txt'
p91
sI91
S'./links_cp/nlpersblogspot/37.txt'
p92
sI92
S'./links_cp/nlpersblogspot/38.txt'
p93
sI93
S'./links_cp/nlpersblogspot/39.txt'
p94
sI94
S'./links_cp/nlpersblogspot/40.txt'
p95
sI95
S'./links_cp/nlpersblogspot/41.txt'
p96
sI96
S'./links_cp/nlpersblogspot/42.txt'
p97
sI97
S'./links_cp/nlpersblogspot/43.txt'
p98
sI98
S'./links_cp/nlpersblogspot/44.txt'
p99
sI99
S'./links_cp/nlpersblogspot/45.txt'
p100
sI100
S'./links_cp/nlpersblogspot/46.txt'
p101
sI101
S'./links_cp/nlpersblogspot/47.txt'
p102
sI102
S'./links_cp/nlpersblogspot/48.txt'
p103
sI103
S'./links_cp/nlpersblogspot/49.txt'
p104
sI104
S'./links_cp/nlpersblogspot/50.txt'
p105
sI105
S'./links_cp/nlpersblogspot/51.txt'
p106
sI106
S'./links_cp/nlpersblogspot/52.txt'
p107
sI107
S'./links_cp/nlpersblogspot/53.txt'
p108
sI108
S'./links_cp/nlpersblogspot/54.txt'
p109
sI109
S'./links_cp/nlpersblogspot/55.txt'
p110
sI110
S'./links_cp/nlpersblogspot/56.txt'
p111
sI111
S'./links_cp/nlpersblogspot/57.txt'
p112
sI112
S'./links_cp/nlpersblogspot/58.txt'
p113
sI113
S'./links_cp/nlpersblogspot/59.txt'
p114
sI114
S'./links_cp/nlpersblogspot/60.txt'
p115
sI115
S'./links_cp/nlpersblogspot/61.txt'
p116
sI116
S'./links_cp/nlpersblogspot/62.txt'
p117
sI117
S'./links_cp/nlpersblogspot/63.txt'
p118
sI118
S'./links_cp/nlpersblogspot/64.txt'
p119
sI119
S'./links_cp/nlpersblogspot/65.txt'
p120
sI120
S'./links_cp/nlpersblogspot/66.txt'
p121
sI121
S'./links_cp/nlpersblogspot/67.txt'
p122
sI122
S'./links_cp/nlpersblogspot/68.txt'
p123
sI123
S'./links_cp/nlpersblogspot/69.txt'
p124
sI124
S'./links_cp/nlpersblogspot/70.txt'
p125
sI125
S'./links_cp/nlpersblogspot/71.txt'
p126
sI126
S'./links_cp/nlpersblogspot/72.txt'
p127
sI127
S'./links_cp/nlpersblogspot/73.txt'
p128
sI128
S'./links_cp/nlpersblogspot/74.txt'
p129
sI129
S'./links_cp/nlpersblogspot/75.txt'
p130
sI130
S'./links_cp/nlpersblogspot/76.txt'
p131
sI131
S'./links_cp/nlpersblogspot/77.txt'
p132
sI132
S'./links_cp/nlpersblogspot/78.txt'
p133
sI133
S'./links_cp/nlpersblogspot/79.txt'
p134
sI134
S'./links_cp/nlpersblogspot/80.txt'
p135
sI135
S'./links_cp/nlpersblogspot/81.txt'
p136
sI136
S'./links_cp/nlpersblogspot/82.txt'
p137
sI137
S'./links_cp/nlpersblogspot/83.txt'
p138
sI138
S'./links_cp/nlpersblogspot/84.txt'
p139
sI139
S'./links_cp/nlpersblogspot/86.txt'
p140
sI140
S'./links_cp/nlpersblogspot/87.txt'
p141
sI141
S'./links_cp/nlpersblogspot/88.txt'
p142
sI142
S'./links_cp/nlpersblogspot/89.txt'
p143
sI143
S'./links_cp/nlpersblogspot/90.txt'
p144
sI144
S'./links_cp/nlpersblogspot/91.txt'
p145
sI145
S'./links_cp/nlpersblogspot/92.txt'
p146
sI146
S'./links_cp/nlpersblogspot/93.txt'
p147
sI147
S'./links_cp/nlpersblogspot/94.txt'
p148
sI148
S'./links_cp/nlpersblogspot/95.txt'
p149
sI149
S'./links_cp/nlpersblogspot/96.txt'
p150
sI150
S'./links_cp/nlpersblogspot/97.txt'
p151
sI151
S'./links_cp/nlpersblogspot/98.txt'
p152
sI152
S'./links_cp/nlpersblogspot/99.txt'
p153
sI153
S'./links_cp/nlpersblogspot/100.txt'
p154
sI154
S'./links_cp/nlpersblogspot/101.txt'
p155
sI155
S'./links_cp/nlpersblogspot/102.txt'
p156
sI156
S'./links_cp/nlpersblogspot/103.txt'
p157
sI157
S'./links_cp/nlpersblogspot/104.txt'
p158
sI158
S'./links_cp/nlpersblogspot/105.txt'
p159
sI159
S'./links_cp/nlpersblogspot/106.txt'
p160
sI160
S'./links_cp/nlpersblogspot/107.txt'
p161
sI161
S'./links_cp/nlpersblogspot/108.txt'
p162
sI162
S'./links_cp/nlpersblogspot/109.txt'
p163
sI163
S'./links_cp/nlpersblogspot/110.txt'
p164
sI164
S'./links_cp/nlpersblogspot/111.txt'
p165
sI165
S'./links_cp/nlpersblogspot/112.txt'
p166
sI166
S'./links_cp/nlpersblogspot/113.txt'
p167
sI167
S'./links_cp/nlpersblogspot/114.txt'
p168
sI168
S'./links_cp/nlpersblogspot/115.txt'
p169
sI169
S'./links_cp/nlpersblogspot/116.txt'
p170
sI170
S'./links_cp/nlpersblogspot/117.txt'
p171
sI171
S'./links_cp/nlpersblogspot/118.txt'
p172
sI172
S'./links_cp/nlpersblogspot/119.txt'
p173
sI173
S'./links_cp/nlpersblogspot/120.txt'
p174
sI174
S'./links_cp/nlpersblogspot/121.txt'
p175
sI175
S'./links_cp/nlpersblogspot/122.txt'
p176
sI176
S'./links_cp/nlpersblogspot/123.txt'
p177
sI177
S'./links_cp/nlpersblogspot/124.txt'
p178
sI178
S'./links_cp/nlpersblogspot/125.txt'
p179
sI179
S'./links_cp/nlpersblogspot/126.txt'
p180
sI180
S'./links_cp/nlpersblogspot/127.txt'
p181
sI181
S'./links_cp/nlpersblogspot/128.txt'
p182
sI182
S'./links_cp/nlpersblogspot/129.txt'
p183
sI183
S'./links_cp/nlpersblogspot/130.txt'
p184
sI184
S'./links_cp/nlpersblogspot/131.txt'
p185
sI185
S'./links_cp/nlpersblogspot/132.txt'
p186
sI186
S'./links_cp/nlpersblogspot/133.txt'
p187
sI187
S'./links_cp/nlpersblogspot/134.txt'
p188
sI188
S'./links_cp/nlpersblogspot/135.txt'
p189
sI189
S'./links_cp/nlpersblogspot/136.txt'
p190
sI190
S'./links_cp/nlpersblogspot/137.txt'
p191
sI191
S'./links_cp/nlpersblogspot/138.txt'
p192
sI192
S'./links_cp/nlpersblogspot/139.txt'
p193
sI193
S'./links_cp/nlpersblogspot/140.txt'
p194
sI194
S'./links_cp/nlpersblogspot/142.txt'
p195
sI195
S'./links_cp/nlpersblogspot/143.txt'
p196
sI196
S'./links_cp/nlpersblogspot/144.txt'
p197
sI197
S'./links_cp/nlpersblogspot/145.txt'
p198
sI198
S'./links_cp/nlpersblogspot/146.txt'
p199
sI199
S'./links_cp/nlpersblogspot/147.txt'
p200
sI200
S'./links_cp/nlpersblogspot/148.txt'
p201
sI201
S'./links_cp/nlpersblogspot/150.txt'
p202
sI202
S'./links_cp/nlpersblogspot/151.txt'
p203
sI203
S'./links_cp/nlpersblogspot/152.txt'
p204
sI204
S'./links_cp/nlpersblogspot/153.txt'
p205
sI205
S'./links_cp/nlpersblogspot/154.txt'
p206
sI206
S'./links_cp/nlpersblogspot/155.txt'
p207
sI207
S'./links_cp/nlpersblogspot/156.txt'
p208
sI208
S'./links_cp/nlpersblogspot/157.txt'
p209
sI209
S'./links_cp/nlpersblogspot/158.txt'
p210
sI210
S'./links_cp/nlpersblogspot/159.txt'
p211
sI211
S'./links_cp/nlpersblogspot/160.txt'
p212
sI212
S'./links_cp/nlpersblogspot/161.txt'
p213
sI213
S'./links_cp/nlpersblogspot/162.txt'
p214
sI214
S'./links_cp/nlpersblogspot/163.txt'
p215
sI215
S'./links_cp/nlpersblogspot/164.txt'
p216
sI216
S'./links_cp/nlpersblogspot/165.txt'
p217
sI217
S'./links_cp/nlpersblogspot/166.txt'
p218
sI218
S'./links_cp/nlpersblogspot/167.txt'
p219
sI219
S'./links_cp/nlpersblogspot/168.txt'
p220
sI220
S'./links_cp/nlpersblogspot/169.txt'
p221
sI221
S'./links_cp/timdettmers/0.txt'
p222
sI222
S'./links_cp/timdettmers/1.txt'
p223
sI223
S'./links_cp/timdettmers/2.txt'
p224
sI224
S'./links_cp/timdettmers/3.txt'
p225
sI225
S'./links_cp/timdettmers/4.txt'
p226
sI226
S'./links_cp/timdettmers/5.txt'
p227
sI227
S'./links_cp/timdettmers/6.txt'
p228
sI228
S'./links_cp/timdettmers/7.txt'
p229
sI229
S'./links_cp/timdettmers/8.txt'
p230
sI230
S'./links_cp/timdettmers/9.txt'
p231
sI231
S'./links_cp/timdettmers/10.txt'
p232
sI232
S'./links_cp/timdettmers/11.txt'
p233
sI233
S'./links_cp/timdettmers/12.txt'
p234
sI234
S'./links_cp/timdettmers/13.txt'
p235
sI235
S'./links_cp/timdettmers/14.txt'
p236
sI236
S'./links_cp/timdettmers/15.txt'
p237
sI237
S'./links_cp/timdettmers/16.txt'
p238
sI238
S'./links_cp/timdettmers/17.txt'
p239
sI239
S'./links_cp/timdettmers/18.txt'
p240
sI240
S'./links_cp/timdettmers/19.txt'
p241
sI241
S'./links_cp/timdettmers/20.txt'
p242
sI242
S'./links_cp/timdettmers/21.txt'
p243
sI243
S'./links_cp/timdettmers/22.txt'
p244
sI244
S'./links_cp/timdettmers/23.txt'
p245
sI245
S'./links_cp/timdettmers/24.txt'
p246
sI246
S'./links_cp/timdettmers/25.txt'
p247
sI247
S'./links_cp/timdettmers/26.txt'
p248
sI248
S'./links_cp/timdettmers/27.txt'
p249
sI249
S'./links_cp/timdettmers/28.txt'
p250
sI250
S'./links_cp/timdettmers/29.txt'
p251
sI251
S'./links_cp/timdettmers/30.txt'
p252
sI252
S'./links_cp/timdettmers/31.txt'
p253
sI253
S'./links_cp/timdettmers/32.txt'
p254
sI254
S'./links_cp/timdettmers/33.txt'
p255
sI255
S'./links_cp/timdettmers/34.txt'
p256
sI256
S'./links_cp/timdettmers/35.txt'
p257
sI257
S'./links_cp/timdettmers/36.txt'
p258
sI258
S'./links_cp/timdettmers/37.txt'
p259
sI259
S'./links_cp/timdettmers/38.txt'
p260
sI260
S'./links_cp/timdettmers/40.txt'
p261
sI261
S'./links_cp/timdettmers/41.txt'
p262
sI262
S'./links_cp/timdettmers/42.txt'
p263
sI263
S'./links_cp/timdettmers/43.txt'
p264
sI264
S'./links_cp/timdettmers/44.txt'
p265
sI265
S'./links_cp/timdettmers/47.txt'
p266
sI266
S'./links_cp/timdettmers/50.txt'
p267
sI267
S'./links_cp/timdettmers/51.txt'
p268
sI268
S'./links_cp/timdettmers/52.txt'
p269
sI269
S'./links_cp/timdettmers/53.txt'
p270
sI270
S'./links_cp/timdettmers/54.txt'
p271
sI271
S'./links_cp/timdettmers/56.txt'
p272
sI272
S'./links_cp/timdettmers/57.txt'
p273
sI273
S'./links_cp/timdettmers/100.txt'
p274
sI274
S'./links_cp/chatbotslife/43.txt'
p275
sI275
S'./links_cp/chatbotslife/49.txt'
p276
sI276
S'./links_cp/chatbotslife/66.txt'
p277
sI277
S'./links_cp/chatbotslife/77.txt'
p278
sI278
S'./links_cp/chatbotslife/88.txt'
p279
sI279
S'./links_cp/artificialintelligenceblognews/0.txt'
p280
sI280
S'./links_cp/artificialintelligenceblognews/1.txt'
p281
sI281
S'./links_cp/artificialintelligenceblognews/3.txt'
p282
sI282
S'./links_cp/artificialintelligenceblognews/4.txt'
p283
sI283
S'./links_cp/artificialintelligenceblognews/5.txt'
p284
sI284
S'./links_cp/artificialintelligenceblognews/6.txt'
p285
sI285
S'./links_cp/artificialintelligenceblognews/7.txt'
p286
sI286
S'./links_cp/artificialintelligenceblognews/8.txt'
p287
sI287
S'./links_cp/artificialintelligenceblognews/9.txt'
p288
sI288
S'./links_cp/artificialintelligenceblognews/10.txt'
p289
sI289
S'./links_cp/artificialintelligenceblognews/11.txt'
p290
sI290
S'./links_cp/artificialintelligenceblognews/17.txt'
p291
sI291
S'./links_cp/artificialintelligenceblognews/18.txt'
p292
sI292
S'./links_cp/artificialintelligenceblognews/19.txt'
p293
sI293
S'./links_cp/artificialintelligenceblognews/20.txt'
p294
sI294
S'./links_cp/artificialintelligenceblognews/22.txt'
p295
sI295
S'./links_cp/artificialintelligenceblognews/23.txt'
p296
sI296
S'./links_cp/artificialintelligenceblognews/24.txt'
p297
sI297
S'./links_cp/artificialintelligenceblognews/25.txt'
p298
sI298
S'./links_cp/artificialintelligenceblognews/26.txt'
p299
sI299
S'./links_cp/artificialintelligenceblognews/27.txt'
p300
sI300
S'./links_cp/artificialintelligenceblognews/28.txt'
p301
sI301
S'./links_cp/artificialintelligenceblognews/29.txt'
p302
sI302
S'./links_cp/artificialintelligenceblognews/30.txt'
p303
sI303
S'./links_cp/artificialintelligenceblognews/32.txt'
p304
sI304
S'./links_cp/artificialintelligenceblognews/33.txt'
p305
sI305
S'./links_cp/artificialintelligenceblognews/34.txt'
p306
sI306
S'./links_cp/artificialintelligenceblognews/35.txt'
p307
sI307
S'./links_cp/artificialintelligenceblognews/36.txt'
p308
sI308
S'./links_cp/artificialintelligenceblognews/37.txt'
p309
sI309
S'./links_cp/artificialintelligenceblognews/38.txt'
p310
sI310
S'./links_cp/artificialintelligenceblognews/39.txt'
p311
sI311
S'./links_cp/artificialintelligenceblognews/40.txt'
p312
sI312
S'./links_cp/artificialintelligenceblognews/41.txt'
p313
sI313
S'./links_cp/artificialintelligenceblognews/42.txt'
p314
sI314
S'./links_cp/artificialintelligenceblognews/43.txt'
p315
sI315
S'./links_cp/artificialintelligenceblognews/44.txt'
p316
sI316
S'./links_cp/artificialintelligenceblognews/45.txt'
p317
sI317
S'./links_cp/artificialintelligenceblognews/46.txt'
p318
sI318
S'./links_cp/artificialintelligenceblognews/47.txt'
p319
sI319
S'./links_cp/artificialintelligenceblognews/48.txt'
p320
sI320
S'./links_cp/artificialintelligenceblognews/49.txt'
p321
sI321
S'./links_cp/artificialintelligenceblognews/50.txt'
p322
sI322
S'./links_cp/artificialintelligenceblognews/51.txt'
p323
sI323
S'./links_cp/artificialintelligenceblognews/52.txt'
p324
sI324
S'./links_cp/artificialintelligenceblognews/53.txt'
p325
sI325
S'./links_cp/artificialintelligenceblognews/54.txt'
p326
sI326
S'./links_cp/artificialintelligenceblognews/55.txt'
p327
sI327
S'./links_cp/artificialintelligenceblognews/56.txt'
p328
sI328
S'./links_cp/artificialintelligenceblognews/57.txt'
p329
sI329
S'./links_cp/artificialintelligenceblognews/58.txt'
p330
sI330
S'./links_cp/artificialintelligenceblognews/59.txt'
p331
sI331
S'./links_cp/artificialintelligenceblognews/60.txt'
p332
sI332
S'./links_cp/artificialintelligenceblognews/61.txt'
p333
sI333
S'./links_cp/artificialintelligenceblognews/62.txt'
p334
sI334
S'./links_cp/artificialintelligenceblognews/63.txt'
p335
sI335
S'./links_cp/artificialintelligenceblognews/64.txt'
p336
sI336
S'./links_cp/artificialintelligenceblognews/65.txt'
p337
sI337
S'./links_cp/artificialintelligenceblognews/66.txt'
p338
sI338
S'./links_cp/artificialintelligenceblognews/67.txt'
p339
sI339
S'./links_cp/artificialintelligenceblognews/68.txt'
p340
sI340
S'./links_cp/artificialintelligenceblognews/69.txt'
p341
sI341
S'./links_cp/artificialintelligenceblognews/70.txt'
p342
sI342
S'./links_cp/artificialintelligenceblognews/71.txt'
p343
sI343
S'./links_cp/artificialintelligenceblognews/72.txt'
p344
sI344
S'./links_cp/artificialintelligenceblognews/73.txt'
p345
sI345
S'./links_cp/artificialintelligenceblognews/74.txt'
p346
sI346
S'./links_cp/artificialintelligenceblognews/75.txt'
p347
sI347
S'./links_cp/artificialintelligenceblognews/76.txt'
p348
sI348
S'./links_cp/artificialintelligenceblognews/77.txt'
p349
sI349
S'./links_cp/artificialintelligenceblognews/78.txt'
p350
sI350
S'./links_cp/artificialintelligenceblognews/79.txt'
p351
sI351
S'./links_cp/artificialintelligenceblognews/80.txt'
p352
sI352
S'./links_cp/artificialintelligenceblognews/81.txt'
p353
sI353
S'./links_cp/artificialintelligenceblognews/82.txt'
p354
sI354
S'./links_cp/artificialintelligenceblognews/83.txt'
p355
sI355
S'./links_cp/artificialintelligenceblognews/84.txt'
p356
sI356
S'./links_cp/artificialintelligenceblognews/85.txt'
p357
sI357
S'./links_cp/artificialintelligenceblognews/86.txt'
p358
sI358
S'./links_cp/artificialintelligenceblognews/87.txt'
p359
sI359
S'./links_cp/artificialintelligenceblognews/89.txt'
p360
sI360
S'./links_cp/wwwwildml/0.txt'
p361
sI361
S'./links_cp/wwwwildml/1.txt'
p362
sI362
S'./links_cp/wwwwildml/2.txt'
p363
sI363
S'./links_cp/wwwwildml/3.txt'
p364
sI364
S'./links_cp/wwwwildml/5.txt'
p365
sI365
S'./links_cp/wwwwildml/6.txt'
p366
sI366
S'./links_cp/wwwwildml/8.txt'
p367
sI367
S'./links_cp/wwwwildml/9.txt'
p368
sI368
S'./links_cp/wwwwildml/10.txt'
p369
sI369
S'./links_cp/wwwwildml/11.txt'
p370
sI370
S'./links_cp/wwwwildml/12.txt'
p371
sI371
S'./links_cp/wwwwildml/13.txt'
p372
sI372
S'./links_cp/wwwwildml/14.txt'
p373
sI373
S'./links_cp/wwwwildml/15.txt'
p374
sI374
S'./links_cp/wwwwildml/16.txt'
p375
sI375
S'./links_cp/wwwwildml/17.txt'
p376
sI376
S'./links_cp/wwwwildml/18.txt'
p377
sI377
S'./links_cp/wwwwildml/19.txt'
p378
sI378
S'./links_cp/wwwwildml/20.txt'
p379
sI379
S'./links_cp/wwwwildml/21.txt'
p380
sI380
S'./links_cp/wwwwildml/22.txt'
p381
sI381
S'./links_cp/wwwwildml/23.txt'
p382
sI382
S'./links_cp/wwwwildml/24.txt'
p383
sI383
S'./links_cp/wwwwildml/25.txt'
p384
sI384
S'./links_cp/wwwwildml/26.txt'
p385
sI385
S'./links_cp/wwwwildml/27.txt'
p386
sI386
S'./links_cp/wwwwildml/28.txt'
p387
sI387
S'./links_cp/wwwwildml/29.txt'
p388
sI388
S'./links_cp/wwwwildml/30.txt'
p389
sI389
S'./links_cp/wwwwildml/31.txt'
p390
sI390
S'./links_cp/wwwwildml/32.txt'
p391
sI391
S'./links_cp/wwwwildml/33.txt'
p392
sI392
S'./links_cp/wwwwildml/34.txt'
p393
sI393
S'./links_cp/wwwwildml/35.txt'
p394
sI394
S'./links_cp/wwwwildml/36.txt'
p395
sI395
S'./links_cp/wwwwildml/37.txt'
p396
sI396
S'./links_cp/wwwwildml/38.txt'
p397
sI397
S'./links_cp/wwwwildml/39.txt'
p398
sI398
S'./links_cp/wwwwildml/40.txt'
p399
sI399
S'./links_cp/wwwwildml/41.txt'
p400
sI400
S'./links_cp/wwwwildml/42.txt'
p401
sI401
S'./links_cp/wwwwildml/43.txt'
p402
sI402
S'./links_cp/wwwwildml/44.txt'
p403
sI403
S'./links_cp/wwwwildml/45.txt'
p404
sI404
S'./links_cp/wwwwildml/46.txt'
p405
sI405
S'./links_cp/wwwwildml/47.txt'
p406
sI406
S'./links_cp/wwwwildml/48.txt'
p407
sI407
S'./links_cp/wwwwildml/49.txt'
p408
sI408
S'./links_cp/wwwwildml/50.txt'
p409
sI409
S'./links_cp/wwwwildml/51.txt'
p410
sI410
S'./links_cp/wwwwildml/52.txt'
p411
sI411
S'./links_cp/wwwwildml/53.txt'
p412
sI412
S'./links_cp/wwwwildml/54.txt'
p413
sI413
S'./links_cp/wwwwildml/55.txt'
p414
sI414
S'./links_cp/wwwwildml/56.txt'
p415
sI415
S'./links_cp/wwwwildml/57.txt'
p416
sI416
S'./links_cp/wwwwildml/58.txt'
p417
sI417
S'./links_cp/wwwwildml/59.txt'
p418
sI418
S'./links_cp/wwwwildml/60.txt'
p419
sI419
S'./links_cp/wwwwildml/61.txt'
p420
sI420
S'./links_cp/wwwwildml/62.txt'
p421
sI421
S'./links_cp/wwwwildml/63.txt'
p422
sI422
S'./links_cp/wwwwildml/64.txt'
p423
sI423
S'./links_cp/wwwwildml/65.txt'
p424
sI424
S'./links_cp/wwwwildml/66.txt'
p425
sI425
S'./links_cp/wwwwildml/67.txt'
p426
sI426
S'./links_cp/wwwwildml/68.txt'
p427
sI427
S'./links_cp/wwwwildml/69.txt'
p428
sI428
S'./links_cp/wwwwildml/70.txt'
p429
sI429
S'./links_cp/chatbotsmagazine/2.txt'
p430
sI430
S'./links_cp/chatbotsmagazine/12.txt'
p431
sI431
S'./links_cp/chatbotsmagazine/23.txt'
p432
sI432
S'./links_cp/chatbotsmagazine/29.txt'
p433
sI433
S'./links_cp/artificiallawyercom/0.txt'
p434
sI434
S'./links_cp/artificiallawyercom/1.txt'
p435
sI435
S'./links_cp/artificiallawyercom/2.txt'
p436
sI436
S'./links_cp/artificiallawyercom/21.txt'
p437
sI437
S'./links_cp/artificiallawyercom/22.txt'
p438
sI438
S'./links_cp/artificiallawyercom/26.txt'
p439
sI439
S'./links_cp/artificiallawyercom/34.txt'
p440
sI440
S'./links_cp/artificiallawyercom/35.txt'
p441
sI441
S'./links_cp/artificiallawyercom/36.txt'
p442
sI442
S'./links_cp/artificiallawyercom/43.txt'
p443
sI443
S'./links_cp/artificiallawyercom/44.txt'
p444
sI444
S'./links_cp/artificiallawyercom/49.txt'
p445
sI445
S'./links_cp/artificiallawyercom/51.txt'
p446
sI446
S'./links_cp/artificiallawyercom/52.txt'
p447
sI447
S'./links_cp/artificiallawyercom/67.txt'
p448
sI448
S'./links_cp/artificiallawyercom/70.txt'
p449
sI449
S'./links_cp/artificiallawyercom/87.txt'
p450
sI450
S'./links_cp/artificiallawyercom/99.txt'
p451
sI451
S'./links_cp/artificiallawyercom/103.txt'
p452
sI452
S'./links_cp/artificiallawyercom/104.txt'
p453
sI453
S'./links_cp/artificiallawyercom/114.txt'
p454
sI454
S'./links_cp/artificiallawyercom/118.txt'
p455
sI455
S'./links_cp/artificiallawyercom/120.txt'
p456
sI456
S'./links_cp/artificiallawyercom/122.txt'
p457
sI457
S'./links_cp/artificiallawyercom/124.txt'
p458
sI458
S'./links_cp/artificiallawyercom/127.txt'
p459
sI459
S'./links_cp/artificiallawyercom/129.txt'
p460
sI460
S'./links_cp/artificiallawyercom/130.txt'
p461
sI461
S'./links_cp/artificiallawyercom/138.txt'
p462
sI462
S'./links_cp/artificiallawyercom/143.txt'
p463
sI463
S'./links_cp/artificiallawyercom/148.txt'
p464
sI464
S'./links_cp/artificiallawyercom/157.txt'
p465
sI465
S'./links_cp/artificiallawyercom/158.txt'
p466
sI466
S'./links_cp/artificiallawyercom/172.txt'
p467
sI467
S'./links_cp/artificiallawyercom/181.txt'
p468
sI468
S'./links_cp/artificiallawyercom/197.txt'
p469
sI469
S'./links_cp/artificiallawyercom/198.txt'
p470
sI470
S'./links_cp/artificiallawyercom/208.txt'
p471
sI471
S'./links_cp/artificiallawyercom/209.txt'
p472
sI472
S'./links_cp/artificiallawyercom/214.txt'
p473
sI473
S'./links_cp/artificiallawyercom/221.txt'
p474
sI474
S'./links_cp/artificiallawyercom/222.txt'
p475
sI475
S'./links_cp/artificiallawyercom/223.txt'
p476
sI476
S'./links_cp/artificiallawyercom/224.txt'
p477
sI477
S'./links_cp/artificiallawyercom/227.txt'
p478
sI478
S'./links_cp/artificiallawyercom/236.txt'
p479
sI479
S'./links_cp/artificiallawyercom/238.txt'
p480
sI480
S'./links_cp/artificiallawyercom/248.txt'
p481
sI481
S'./links_cp/artificiallawyercom/251.txt'
p482
sI482
S'./links_cp/artificiallawyercom/253.txt'
p483
sI483
S'./links_cp/artificiallawyercom/259.txt'
p484
sI484
S'./links_cp/artificiallawyercom/267.txt'
p485
sI485
S'./links_cp/artificiallawyercom/271.txt'
p486
sI486
S'./links_cp/artificiallawyercom/278.txt'
p487
sI487
S'./links_cp/artificiallawyercom/292.txt'
p488
sI488
S'./links_cp/avanadecomenblogsavanadeinsightsartificialintelligence/1.txt'
p489
sI489
S'./links_cp/avanadecomenblogsavanadeinsightsartificialintelligence/2.txt'
p490
sI490
S'./links_cp/avanadecomenblogsavanadeinsightsartificialintelligence/3.txt'
p491
sI491
S'./links_cp/avanadecomenblogsavanadeinsightsartificialintelligence/4.txt'
p492
sI492
S'./links_cp/avanadecomenblogsavanadeinsightsartificialintelligence/5.txt'
p493
sI493
S'./links_cp/avanadecomenblogsavanadeinsightsartificialintelligence/6.txt'
p494
sI494
S'./links_cp/avanadecomenblogsavanadeinsightsartificialintelligence/7.txt'
p495
sI495
S'./links_cp/avanadecomenblogsavanadeinsightsartificialintelligence/8.txt'
p496
sI496
S'./links_cp/avanadecomenblogsavanadeinsightsartificialintelligence/9.txt'
p497
sI497
S'./links_cp/avanadecomenblogsavanadeinsightsartificialintelligence/10.txt'
p498
sI498
S'./links_cp/avanadecomenblogsavanadeinsightsartificialintelligence/11.txt'
p499
sI499
S'./links_cp/avanadecomenblogsavanadeinsightsartificialintelligence/12.txt'
p500
sI500
S'./links_cp/avanadecomenblogsavanadeinsightsartificialintelligence/13.txt'
p501
sI501
S'./links_cp/avanadecomenblogsavanadeinsightsartificialintelligence/14.txt'
p502
sI502
S'./links_cp/avanadecomenblogsavanadeinsightsartificialintelligence/15.txt'
p503
sI503
S'./links_cp/avanadecomenblogsavanadeinsightsartificialintelligence/16.txt'
p504
sI504
S'./links_cp/avanadecomenblogsavanadeinsightsartificialintelligence/17.txt'
p505
sI505
S'./links_cp/avanadecomenblogsavanadeinsightsartificialintelligence/18.txt'
p506
sI506
S'./links_cp/avanadecomenblogsavanadeinsightsartificialintelligence/19.txt'
p507
sI507
S'./links_cp/avanadecomenblogsavanadeinsightsartificialintelligence/20.txt'
p508
sI508
S'./links_cp/avanadecomenblogsavanadeinsightsartificialintelligence/21.txt'
p509
sI509
S'./links_cp/avanadecomenblogsavanadeinsightsartificialintelligence/22.txt'
p510
sI510
S'./links_cp/avanadecomenblogsavanadeinsightsartificialintelligence/23.txt'
p511
sI511
S'./links_cp/avanadecomenblogsavanadeinsightsartificialintelligence/24.txt'
p512
sI512
S'./links_cp/avanadecomenblogsavanadeinsightsartificialintelligence/25.txt'
p513
sI513
S'./links_cp/avanadecomenblogsavanadeinsightsartificialintelligence/26.txt'
p514
sI514
S'./links_cp/avanadecomenblogsavanadeinsightsartificialintelligence/27.txt'
p515
sI515
S'./links_cp/avanadecomenblogsavanadeinsightsartificialintelligence/28.txt'
p516
sI516
S'./links_cp/avanadecomenblogsavanadeinsightsartificialintelligence/29.txt'
p517
sI517
S'./links_cp/avanadecomenblogsavanadeinsightsartificialintelligence/30.txt'
p518
sI518
S'./links_cp/avanadecomenblogsavanadeinsightsartificialintelligence/31.txt'
p519
sI519
S'./links_cp/avanadecomenblogsavanadeinsightsartificialintelligence/32.txt'
p520
sI520
S'./links_cp/avanadecomenblogsavanadeinsightsartificialintelligence/33.txt'
p521
sI521
S'./links_cp/avanadecomenblogsavanadeinsightsartificialintelligence/34.txt'
p522
sI522
S'./links_cp/avanadecomenblogsavanadeinsightsartificialintelligence/35.txt'
p523
sI523
S'./links_cp/avanadecomenblogsavanadeinsightsartificialintelligence/36.txt'
p524
sI524
S'./links_cp/avanadecomenblogsavanadeinsightsartificialintelligence/37.txt'
p525
sI525
S'./links_cp/avanadecomenblogsavanadeinsightsartificialintelligence/38.txt'
p526
sI526
S'./links_cp/avanadecomenblogsavanadeinsightsartificialintelligence/39.txt'
p527
sI527
S'./links_cp/avanadecomenblogsavanadeinsightsartificialintelligence/40.txt'
p528
sI528
S'./links_cp/avanadecomenblogsavanadeinsightsartificialintelligence/41.txt'
p529
sI529
S'./links_cp/avanadecomenblogsavanadeinsightsartificialintelligence/42.txt'
p530
sI530
S'./links_cp/avanadecomenblogsavanadeinsightsartificialintelligence/43.txt'
p531
sI531
S'./links_cp/avanadecomenblogsavanadeinsightsartificialintelligence/44.txt'
p532
sI532
S'./links_cp/avanadecomenblogsavanadeinsightsartificialintelligence/45.txt'
p533
sI533
S'./links_cp/avanadecomenblogsavanadeinsightsartificialintelligence/46.txt'
p534
sI534
S'./links_cp/avanadecomenblogsavanadeinsightsartificialintelligence/47.txt'
p535
sI535
S'./links_cp/avanadecomenblogsavanadeinsightsartificialintelligence/48.txt'
p536
sI536
S'./links_cp/avanadecomenblogsavanadeinsightsartificialintelligence/49.txt'
p537
sI537
S'./links_cp/avanadecomenblogsavanadeinsightsartificialintelligence/50.txt'
p538
sI538
S'./links_cp/avanadecomenblogsavanadeinsightsartificialintelligence/51.txt'
p539
sI539
S'./links_cp/avanadecomenblogsavanadeinsightsartificialintelligence/52.txt'
p540
sI540
S'./links_cp/avanadecomenblogsavanadeinsightsartificialintelligence/53.txt'
p541
sI541
S'./links_cp/avanadecomenblogsavanadeinsightsartificialintelligence/54.txt'
p542
sI542
S'./links_cp/avanadecomenblogsavanadeinsightsartificialintelligence/55.txt'
p543
sI543
S'./links_cp/avanadecomenblogsavanadeinsightsartificialintelligence/56.txt'
p544
sI544
S'./links_cp/analyticsvidhyacomblog/4.txt'
p545
sI545
S'./links_cp/analyticsvidhyacomblog/5.txt'
p546
sI546
S'./links_cp/analyticsvidhyacomblog/6.txt'
p547
sI547
S'./links_cp/analyticsvidhyacomblog/7.txt'
p548
sI548
S'./links_cp/analyticsvidhyacomblog/8.txt'
p549
sI549
S'./links_cp/analyticsvidhyacomblog/9.txt'
p550
sI550
S'./links_cp/analyticsvidhyacomblog/10.txt'
p551
sI551
S'./links_cp/analyticsvidhyacomblog/11.txt'
p552
sI552
S'./links_cp/analyticsvidhyacomblog/12.txt'
p553
sI553
S'./links_cp/analyticsvidhyacomblog/13.txt'
p554
sI554
S'./links_cp/analyticsvidhyacomblog/14.txt'
p555
sI555
S'./links_cp/analyticsvidhyacomblog/15.txt'
p556
sI556
S'./links_cp/analyticsvidhyacomblog/16.txt'
p557
sI557
S'./links_cp/analyticsvidhyacomblog/17.txt'
p558
sI558
S'./links_cp/analyticsvidhyacomblog/18.txt'
p559
sI559
S'./links_cp/analyticsvidhyacomblog/19.txt'
p560
sI560
S'./links_cp/analyticsvidhyacomblog/20.txt'
p561
sI561
S'./links_cp/analyticsvidhyacomblog/22.txt'
p562
sI562
S'./links_cp/analyticsvidhyacomblog/65.txt'
p563
sI563
S'./links_cp/analyticsvidhyacomblog/107.txt'
p564
sI564
S'./links_cp/analyticsvidhyacomblog/132.txt'
p565
sI565
S'./links_cp/analyticsvidhyacomblog/167.txt'
p566
sI566
S'./links_cp/analyticsvidhyacomblog/191.txt'
p567
sI567
S'./links_cp/analyticsvidhyacomblog/197.txt'
p568
sI568
S'./links_cp/analyticsvidhyacomblog/200.txt'
p569
sI569
S'./links_cp/analyticsvidhyacomblog/202.txt'
p570
sI570
S'./links_cp/analyticsvidhyacomblog/234.txt'
p571
sI571
S'./links_cp/analyticsvidhyacomblog/255.txt'
p572
sI572
S'./links_cp/analyticsvidhyacomblog/256.txt'
p573
sI573
S'./links_cp/analyticsvidhyacomblog/257.txt'
p574
sI574
S'./links_cp/analyticsvidhyacomblog/258.txt'
p575
sI575
S'./links_cp/analyticsvidhyacomblog/259.txt'
p576
sI576
S'./links_cp/analyticsvidhyacomblog/260.txt'
p577
sI577
S'./links_cp/analyticsvidhyacomblog/261.txt'
p578
sI578
S'./links_cp/analyticsvidhyacomblog/262.txt'
p579
sI579
S'./links_cp/analyticsvidhyacomblog/263.txt'
p580
sI580
S'./links_cp/analyticsvidhyacomblog/264.txt'
p581
sI581
S'./links_cp/analyticsvidhyacomblog/265.txt'
p582
sI582
S'./links_cp/analyticsvidhyacomblog/266.txt'
p583
sI583
S'./links_cp/analyticsvidhyacomblog/267.txt'
p584
sI584
S'./links_cp/analyticsvidhyacomblog/268.txt'
p585
sI585
S'./links_cp/analyticsvidhyacomblog/269.txt'
p586
sI586
S'./links_cp/analyticsvidhyacomblog/270.txt'
p587
sI587
S'./links_cp/analyticsvidhyacomblog/271.txt'
p588
sI588
S'./links_cp/analyticsvidhyacomblog/272.txt'
p589
sI589
S'./links_cp/analyticsvidhyacomblog/273.txt'
p590
sI590
S'./links_cp/analyticsvidhyacomblog/274.txt'
p591
sI591
S'./links_cp/analyticsvidhyacomblog/275.txt'
p592
sI592
S'./links_cp/analyticsvidhyacomblog/276.txt'
p593
sI593
S'./links_cp/analyticsvidhyacomblog/277.txt'
p594
sI594
S'./links_cp/analyticsvidhyacomblog/278.txt'
p595
sI595
S'./links_cp/analyticsvidhyacomblog/279.txt'
p596
sI596
S'./links_cp/analyticsvidhyacomblog/280.txt'
p597
sI597
S'./links_cp/analyticsvidhyacomblog/281.txt'
p598
sI598
S'./links_cp/analyticsvidhyacomblog/282.txt'
p599
sI599
S'./links_cp/analyticsvidhyacomblog/283.txt'
p600
sI600
S'./links_cp/analyticsvidhyacomblog/284.txt'
p601
sI601
S'./links_cp/analyticsvidhyacomblog/285.txt'
p602
sI602
S'./links_cp/analyticsvidhyacomblog/286.txt'
p603
sI603
S'./links_cp/analyticsvidhyacomblog/287.txt'
p604
sI604
S'./links_cp/analyticsvidhyacomblog/288.txt'
p605
sI605
S'./links_cp/analyticsvidhyacomblog/289.txt'
p606
sI606
S'./links_cp/analyticsvidhyacomblog/290.txt'
p607
sI607
S'./links_cp/analyticsvidhyacomblog/291.txt'
p608
sI608
S'./links_cp/analyticsvidhyacomblog/292.txt'
p609
sI609
S'./links_cp/analyticsvidhyacomblog/293.txt'
p610
sI610
S'./links_cp/analyticsvidhyacomblog/294.txt'
p611
sI611
S'./links_cp/analyticsvidhyacomblog/295.txt'
p612
sI612
S'./links_cp/analyticsvidhyacomblog/296.txt'
p613
sI613
S'./links_cp/analyticsvidhyacomblog/297.txt'
p614
sI614
S'./links_cp/analyticsvidhyacomblog/298.txt'
p615
sI615
S'./links_cp/analyticsvidhyacomblog/299.txt'
p616
sI616
S'./links_cp/analyticsvidhyacomblog/300.txt'
p617
sI617
S'./links_cp/insidebigdata/1.txt'
p618
sI618
S'./links_cp/insidebigdata/2.txt'
p619
sI619
S'./links_cp/insidebigdata/3.txt'
p620
sI620
S'./links_cp/insidebigdata/4.txt'
p621
sI621
S'./links_cp/insidebigdata/5.txt'
p622
sI622
S'./links_cp/insidebigdata/6.txt'
p623
sI623
S'./links_cp/insidebigdata/7.txt'
p624
sI624
S'./links_cp/insidebigdata/8.txt'
p625
sI625
S'./links_cp/insidebigdata/9.txt'
p626
sI626
S'./links_cp/insidebigdata/10.txt'
p627
sI627
S'./links_cp/insidebigdata/11.txt'
p628
sI628
S'./links_cp/insidebigdata/14.txt'
p629
sI629
S'./links_cp/insidebigdata/15.txt'
p630
sI630
S'./links_cp/insidebigdata/17.txt'
p631
sI631
S'./links_cp/insidebigdata/19.txt'
p632
sI632
S'./links_cp/insidebigdata/21.txt'
p633
sI633
S'./links_cp/insidebigdata/22.txt'
p634
sI634
S'./links_cp/insidebigdata/23.txt'
p635
sI635
S'./links_cp/insidebigdata/25.txt'
p636
sI636
S'./links_cp/insidebigdata/26.txt'
p637
sI637
S'./links_cp/insidebigdata/27.txt'
p638
sI638
S'./links_cp/insidebigdata/28.txt'
p639
sI639
S'./links_cp/insidebigdata/29.txt'
p640
sI640
S'./links_cp/insidebigdata/30.txt'
p641
sI641
S'./links_cp/insidebigdata/31.txt'
p642
sI642
S'./links_cp/insidebigdata/32.txt'
p643
sI643
S'./links_cp/insidebigdata/33.txt'
p644
sI644
S'./links_cp/insidebigdata/34.txt'
p645
sI645
S'./links_cp/insidebigdata/36.txt'
p646
sI646
S'./links_cp/insidebigdata/38.txt'
p647
sI647
S'./links_cp/insidebigdata/39.txt'
p648
sI648
S'./links_cp/insidebigdata/40.txt'
p649
sI649
S'./links_cp/insidebigdata/41.txt'
p650
sI650
S'./links_cp/insidebigdata/42.txt'
p651
sI651
S'./links_cp/insidebigdata/44.txt'
p652
sI652
S'./links_cp/insidebigdata/46.txt'
p653
sI653
S'./links_cp/insidebigdata/48.txt'
p654
sI654
S'./links_cp/insidebigdata/49.txt'
p655
sI655
S'./links_cp/insidebigdata/52.txt'
p656
sI656
S'./links_cp/insidebigdata/53.txt'
p657
sI657
S'./links_cp/insidebigdata/57.txt'
p658
sI658
S'./links_cp/insidebigdata/58.txt'
p659
sI659
S'./links_cp/insidebigdata/59.txt'
p660
sI660
S'./links_cp/insidebigdata/60.txt'
p661
sI661
S'./links_cp/insidebigdata/61.txt'
p662
sI662
S'./links_cp/insidebigdata/62.txt'
p663
sI663
S'./links_cp/insidebigdata/63.txt'
p664
sI664
S'./links_cp/insidebigdata/64.txt'
p665
sI665
S'./links_cp/insidebigdata/66.txt'
p666
sI666
S'./links_cp/insidebigdata/68.txt'
p667
sI667
S'./links_cp/insidebigdata/69.txt'
p668
sI668
S'./links_cp/insidebigdata/71.txt'
p669
sI669
S'./links_cp/insidebigdata/72.txt'
p670
sI670
S'./links_cp/insidebigdata/73.txt'
p671
sI671
S'./links_cp/blogopenai/0.txt'
p672
sI672
S'./links_cp/marktechpostcomcategorytechnologyartificialintelligence/3.txt'
p673
sI673
S'./links_cp/marktechpostcomcategorytechnologyartificialintelligence/16.txt'
p674
s.